target datalayout = "e-m:e-p270:32:32-p271:32:32-p272:64:64-i64:64-i128:128-f80:128-n8:16:32:64-S128"
target triple = "x86_64-unknown-linux-gnu"

%"class.icu_75::CollationRuleParser" = type <{ ptr, ptr, ptr, ptr, ptr, ptr, ptr, ptr, ptr, i32, [4 x i8] }>
%struct.UParseError = type { i32, i32, [16 x i16], [16 x i16] }
%"class.icu_75::UnicodeString" = type { %"class.icu_75::Replaceable", %"union.icu_75::UnicodeString::StackBufferOrFields" }
%"class.icu_75::Replaceable" = type { %"class.icu_75::UObject" }
%"class.icu_75::UObject" = type { ptr }
%"union.icu_75::UnicodeString::StackBufferOrFields" = type { %struct.anon.0, [32 x i8] }
%struct.anon.0 = type { i16, i32, i32, ptr }
%struct.anon = type { i16, [27 x i16] }
%"class.icu_75::Char16Ptr" = type { ptr }

; Function Attrs: mustprogress nounwind uwtable
define linkonce_odr noundef ptr @_ZNK6icu_759Char16Ptr3getEv(ptr noundef nonnull align 8 dereferenceable(8) %this) #0 comdat align 2 {
entry:
  %this.addr = alloca ptr, align 8
  store ptr %this, ptr %this.addr, align 8
  %this1 = load ptr, ptr %this.addr, align 8
  %p_ = getelementptr inbounds %"class.icu_75::Char16Ptr", ptr %this1, i32 0, i32 0
  %0 = load ptr, ptr %p_, align 8
  ret ptr %0
}

; Function Attrs: mustprogress nounwind uwtable
define linkonce_odr noundef ptr @_ZNK6icu_7513UnicodeString13getArrayStartEv(ptr noundef nonnull align 8 dereferenceable(64) %this) #0 comdat align 2 {
entry:
  %this.addr = alloca ptr, align 8
  store ptr %this, ptr %this.addr, align 8
  %this1 = load ptr, ptr %this.addr, align 8
  %fUnion = getelementptr inbounds %"class.icu_75::UnicodeString", ptr %this1, i32 0, i32 1
  %fLengthAndFlags = getelementptr inbounds %struct.anon.0, ptr %fUnion, i32 0, i32 0
  %0 = load i16, ptr %fLengthAndFlags, align 8
  %conv = sext i16 %0 to i32
  %and = and i32 %conv, 2
  %tobool = icmp ne i32 %and, 0
  br i1 %tobool, label %cond.true, label %cond.false

cond.true:                                        ; preds = %entry
  %fUnion2 = getelementptr inbounds %"class.icu_75::UnicodeString", ptr %this1, i32 0, i32 1
  %fBuffer = getelementptr inbounds %struct.anon, ptr %fUnion2, i32 0, i32 1
  %arraydecay = getelementptr inbounds [27 x i16], ptr %fBuffer, i64 0, i64 0
  br label %cond.end

cond.false:                                       ; preds = %entry
  %fUnion3 = getelementptr inbounds %"class.icu_75::UnicodeString", ptr %this1, i32 0, i32 1
  %fArray = getelementptr inbounds %struct.anon.0, ptr %fUnion3, i32 0, i32 3
  %1 = load ptr, ptr %fArray, align 8
  br label %cond.end

cond.end:                                         ; preds = %cond.false, %cond.true
  %cond = phi ptr [ %arraydecay, %cond.true ], [ %1, %cond.false ]
  ret ptr %cond
}

; Function Attrs: mustprogress nounwind uwtable
define linkonce_odr noundef i32 @_ZNK6icu_7513UnicodeString14getShortLengthEv(ptr noundef nonnull align 8 dereferenceable(64) %this) #0 comdat align 2 {
entry:
  %this.addr = alloca ptr, align 8
  store ptr %this, ptr %this.addr, align 8
  %this1 = load ptr, ptr %this.addr, align 8
  %fUnion = getelementptr inbounds %"class.icu_75::UnicodeString", ptr %this1, i32 0, i32 1
  %fLengthAndFlags = getelementptr inbounds %struct.anon.0, ptr %fUnion, i32 0, i32 0
  %0 = load i16, ptr %fLengthAndFlags, align 8
  %conv = sext i16 %0 to i32
  %shr = ashr i32 %conv, 5
  ret i32 %shr
}

; Function Attrs: mustprogress nounwind uwtable
define linkonce_odr noundef signext i8 @_ZNK6icu_7513UnicodeString14hasShortLengthEv(ptr noundef nonnull align 8 dereferenceable(64) %this) #0 comdat align 2 {
entry:
  %this.addr = alloca ptr, align 8
  store ptr %this, ptr %this.addr, align 8
  %this1 = load ptr, ptr %this.addr, align 8
  %fUnion = getelementptr inbounds %"class.icu_75::UnicodeString", ptr %this1, i32 0, i32 1
  %fLengthAndFlags = getelementptr inbounds %struct.anon.0, ptr %fUnion, i32 0, i32 0
  %0 = load i16, ptr %fLengthAndFlags, align 8
  %conv = sext i16 %0 to i32
  %cmp = icmp sge i32 %conv, 0
  %conv2 = zext i1 %cmp to i8
  ret i8 %conv2
}

; Function Attrs: mustprogress uwtable
define linkonce_odr noundef ptr @_ZNK6icu_759Char16PtrcvPDsEv(ptr noundef nonnull align 8 dereferenceable(8) %this) #1 comdat align 2 {
entry:
  %this.addr = alloca ptr, align 8
  store ptr %this, ptr %this.addr, align 8
  %this1 = load ptr, ptr %this.addr, align 8
  %call = call noundef ptr @_ZNK6icu_759Char16Ptr3getEv(ptr noundef nonnull align 8 dereferenceable(8) %this1)
  ret ptr %call
}

; Function Attrs: mustprogress uwtable
define linkonce_odr noundef zeroext i16 @_ZNK6icu_7513UnicodeString8doCharAtEi(ptr noundef nonnull align 8 dereferenceable(64) %this, i32 noundef %offset) #1 comdat align 2 {
entry:
  %retval = alloca i16, align 2
  %this.addr = alloca ptr, align 8
  %offset.addr = alloca i32, align 4
  store ptr %this, ptr %this.addr, align 8
  store i32 %offset, ptr %offset.addr, align 4
  %this1 = load ptr, ptr %this.addr, align 8
  %0 = load i32, ptr %offset.addr, align 4
  %call = call noundef i32 @_ZNK6icu_7513UnicodeString6lengthEv(ptr noundef nonnull align 8 dereferenceable(64) %this1)
  %cmp = icmp ult i32 %0, %call
  br i1 %cmp, label %if.then, label %if.else

if.then:                                          ; preds = %entry
  %call2 = call noundef ptr @_ZNK6icu_7513UnicodeString13getArrayStartEv(ptr noundef nonnull align 8 dereferenceable(64) %this1)
  %1 = load i32, ptr %offset.addr, align 4
  %idxprom = sext i32 %1 to i64
  %arrayidx = getelementptr inbounds i16, ptr %call2, i64 %idxprom
  %2 = load i16, ptr %arrayidx, align 2
  store i16 %2, ptr %retval, align 2
  br label %return

if.else:                                          ; preds = %entry
  store i16 -1, ptr %retval, align 2
  br label %return

return:                                           ; preds = %if.else, %if.then
  %3 = load i16, ptr %retval, align 2
  ret i16 %3
}

; Function Attrs: mustprogress uwtable
define linkonce_odr noundef i32 @_ZNK6icu_7513UnicodeString6lengthEv(ptr noundef nonnull align 8 dereferenceable(64) %this) #1 comdat align 2 {
entry:
  %this.addr = alloca ptr, align 8
  store ptr %this, ptr %this.addr, align 8
  %this1 = load ptr, ptr %this.addr, align 8
  %call = call noundef signext i8 @_ZNK6icu_7513UnicodeString14hasShortLengthEv(ptr noundef nonnull align 8 dereferenceable(64) %this1)
  %tobool = icmp ne i8 %call, 0
  br i1 %tobool, label %cond.true, label %cond.false

cond.true:                                        ; preds = %entry
  %call2 = call noundef i32 @_ZNK6icu_7513UnicodeString14getShortLengthEv(ptr noundef nonnull align 8 dereferenceable(64) %this1)
  br label %cond.end

cond.false:                                       ; preds = %entry
  %fUnion = getelementptr inbounds %"class.icu_75::UnicodeString", ptr %this1, i32 0, i32 1
  %fLength = getelementptr inbounds %struct.anon.0, ptr %fUnion, i32 0, i32 1
  %0 = load i32, ptr %fLength, align 4
  br label %cond.end

cond.end:                                         ; preds = %cond.false, %cond.true
  %cond = phi i32 [ %call2, %cond.true ], [ %0, %cond.false ]
  ret i32 %cond
}

; Function Attrs: mustprogress nounwind uwtable
define linkonce_odr void @_ZN6icu_759Char16PtrD2Ev(ptr noundef nonnull align 8 dereferenceable(8) %this) unnamed_addr #0 comdat align 2 {
entry:
  %this.addr = alloca ptr, align 8
  store ptr %this, ptr %this.addr, align 8
  %this1 = load ptr, ptr %this.addr, align 8
  %p_ = getelementptr inbounds %"class.icu_75::Char16Ptr", ptr %this1, i32 0, i32 0
  %0 = load ptr, ptr %p_, align 8
  call void asm sideeffect "", "rm,~{memory},~{dirflag},~{fpsr},~{flags}"(ptr %0) #8, !srcloc !21
  ret void
}

; Function Attrs: mustprogress uwtable
define linkonce_odr void @_ZNK6icu_7513UnicodeString7extractEiiNS_9Char16PtrEi(ptr noundef nonnull align 8 dereferenceable(64) %this, i32 noundef %start, i32 noundef %_length, ptr noundef %target, i32 noundef %targetStart) #1 comdat align 2 {
entry:
  %this.addr = alloca ptr, align 8
  %start.addr = alloca i32, align 4
  %_length.addr = alloca i32, align 4
  %target.indirect_addr = alloca ptr, align 8
  %targetStart.addr = alloca i32, align 4
  store ptr %this, ptr %this.addr, align 8
  store i32 %start, ptr %start.addr, align 4
  store i32 %_length, ptr %_length.addr, align 4
  store ptr %target, ptr %target.indirect_addr, align 8
  store i32 %targetStart, ptr %targetStart.addr, align 4
  %this1 = load ptr, ptr %this.addr, align 8
  %0 = load i32, ptr %start.addr, align 4
  %1 = load i32, ptr %_length.addr, align 4
  %call = call noundef ptr @_ZNK6icu_759Char16PtrcvPDsEv(ptr noundef nonnull align 8 dereferenceable(8) %target)
  %2 = load i32, ptr %targetStart.addr, align 4
  call void @_ZNK6icu_7513UnicodeString9doExtractEiiPDsi(ptr noundef nonnull align 8 dereferenceable(64) %this1, i32 noundef %0, i32 noundef %1, ptr noundef %call, i32 noundef %2)
  ret void
}

; Function Attrs: mustprogress nounwind uwtable
define linkonce_odr void @_ZN6icu_759Char16PtrC2EPDs(ptr noundef nonnull align 8 dereferenceable(8) %this, ptr noundef %p) unnamed_addr #0 comdat align 2 {
entry:
  %this.addr = alloca ptr, align 8
  %p.addr = alloca ptr, align 8
  store ptr %this, ptr %this.addr, align 8
  store ptr %p, ptr %p.addr, align 8
  %this1 = load ptr, ptr %this.addr, align 8
  %p_ = getelementptr inbounds %"class.icu_75::Char16Ptr", ptr %this1, i32 0, i32 0
  %0 = load ptr, ptr %p.addr, align 8
  store ptr %0, ptr %p_, align 8
  ret void
}

; Function Attrs: mustprogress uwtable
define linkonce_odr noundef zeroext i16 @_ZNK6icu_7513UnicodeString6charAtEi(ptr noundef nonnull align 8 dereferenceable(64) %this, i32 noundef %offset) #1 comdat align 2 {
entry:
  %this.addr = alloca ptr, align 8
  %offset.addr = alloca i32, align 4
  store ptr %this, ptr %this.addr, align 8
  store i32 %offset, ptr %offset.addr, align 4
  %this1 = load ptr, ptr %this.addr, align 8
  %0 = load i32, ptr %offset.addr, align 4
  %call = call noundef zeroext i16 @_ZNK6icu_7513UnicodeString8doCharAtEi(ptr noundef nonnull align 8 dereferenceable(64) %this1, i32 noundef %0)
  ret i16 %call
}

; Function Attrs: mustprogress uwtable
define void @_ZN6icu_7519CollationRuleParser15setErrorContextEv(ptr noundef nonnull align 8 dereferenceable(76) %this) #1 align 2 personality ptr @__gxx_personality_v0 {
entry:
  %this.addr = alloca ptr, align 8
  %start = alloca i32, align 4
  %length = alloca i32, align 4
  %agg.tmp = alloca %"class.icu_75::Char16Ptr", align 8
  %exn.slot = alloca ptr, align 8
  %ehselector.slot = alloca i32, align 4
  %agg.tmp36 = alloca %"class.icu_75::Char16Ptr", align 8
  store ptr %this, ptr %this.addr, align 8
  %this1 = load ptr, ptr %this.addr, align 8
  %parseError = getelementptr inbounds %"class.icu_75::CollationRuleParser", ptr %this1, i32 0, i32 5
  %0 = load ptr, ptr %parseError, align 8
  %cmp = icmp eq ptr %0, null
  br i1 %cmp, label %if.then, label %if.end

if.then:                                          ; preds = %entry
  br label %return

if.end:                                           ; preds = %entry
  %ruleIndex = getelementptr inbounds %"class.icu_75::CollationRuleParser", ptr %this1, i32 0, i32 9
  %1 = load i32, ptr %ruleIndex, align 8
  %parseError2 = getelementptr inbounds %"class.icu_75::CollationRuleParser", ptr %this1, i32 0, i32 5
  %2 = load ptr, ptr %parseError2, align 8
  %offset = getelementptr inbounds %struct.UParseError, ptr %2, i32 0, i32 1
  store i32 %1, ptr %offset, align 4
  %parseError3 = getelementptr inbounds %"class.icu_75::CollationRuleParser", ptr %this1, i32 0, i32 5
  %3 = load ptr, ptr %parseError3, align 8
  %line = getelementptr inbounds %struct.UParseError, ptr %3, i32 0, i32 0
  store i32 0, ptr %line, align 4
  %ruleIndex4 = getelementptr inbounds %"class.icu_75::CollationRuleParser", ptr %this1, i32 0, i32 9
  %4 = load i32, ptr %ruleIndex4, align 8
  %sub = sub nsw i32 %4, 15
  store i32 %sub, ptr %start, align 4
  %5 = load i32, ptr %start, align 4
  %cmp5 = icmp slt i32 %5, 0
  br i1 %cmp5, label %if.then6, label %if.else

if.then6:                                         ; preds = %if.end
  store i32 0, ptr %start, align 4
  br label %if.end11

if.else:                                          ; preds = %if.end
  %6 = load i32, ptr %start, align 4
  %cmp7 = icmp sgt i32 %6, 0
  br i1 %cmp7, label %land.lhs.true, label %if.end10

land.lhs.true:                                    ; preds = %if.else
  %rules = getelementptr inbounds %"class.icu_75::CollationRuleParser", ptr %this1, i32 0, i32 2
  %7 = load ptr, ptr %rules, align 8
  %8 = load i32, ptr %start, align 4
  %call = call noundef zeroext i16 @_ZNK6icu_7513UnicodeString6charAtEi(ptr noundef nonnull align 8 dereferenceable(64) %7, i32 noundef %8)
  %conv = zext i16 %call to i32
  %and = and i32 %conv, -1024
  %cmp8 = icmp eq i32 %and, 56320
  br i1 %cmp8, label %if.then9, label %if.end10

if.then9:                                         ; preds = %land.lhs.true
  %9 = load i32, ptr %start, align 4
  %inc = add nsw i32 %9, 1
  store i32 %inc, ptr %start, align 4
  br label %if.end10

if.end10:                                         ; preds = %if.then9, %land.lhs.true, %if.else
  br label %if.end11

if.end11:                                         ; preds = %if.end10, %if.then6
  %ruleIndex12 = getelementptr inbounds %"class.icu_75::CollationRuleParser", ptr %this1, i32 0, i32 9
  %10 = load i32, ptr %ruleIndex12, align 8
  %11 = load i32, ptr %start, align 4
  %sub13 = sub nsw i32 %10, %11
  store i32 %sub13, ptr %length, align 4
  %rules14 = getelementptr inbounds %"class.icu_75::CollationRuleParser", ptr %this1, i32 0, i32 2
  %12 = load ptr, ptr %rules14, align 8
  %13 = load i32, ptr %start, align 4
  %14 = load i32, ptr %length, align 4
  %parseError15 = getelementptr inbounds %"class.icu_75::CollationRuleParser", ptr %this1, i32 0, i32 5
  %15 = load ptr, ptr %parseError15, align 8
  %preContext = getelementptr inbounds %struct.UParseError, ptr %15, i32 0, i32 2
  %arraydecay = getelementptr inbounds [16 x i16], ptr %preContext, i64 0, i64 0
  call void @_ZN6icu_759Char16PtrC2EPDs(ptr noundef nonnull align 8 dereferenceable(8) %agg.tmp, ptr noundef %arraydecay)
  invoke void @_ZNK6icu_7513UnicodeString7extractEiiNS_9Char16PtrEi(ptr noundef nonnull align 8 dereferenceable(64) %12, i32 noundef %13, i32 noundef %14, ptr noundef %agg.tmp, i32 noundef 0)
          to label %invoke.cont unwind label %lpad

invoke.cont:                                      ; preds = %if.end11
  call void @_ZN6icu_759Char16PtrD2Ev(ptr noundef nonnull align 8 dereferenceable(8) %agg.tmp) #8
  %parseError16 = getelementptr inbounds %"class.icu_75::CollationRuleParser", ptr %this1, i32 0, i32 5
  %16 = load ptr, ptr %parseError16, align 8
  %preContext17 = getelementptr inbounds %struct.UParseError, ptr %16, i32 0, i32 2
  %17 = load i32, ptr %length, align 4
  %idxprom = sext i32 %17 to i64
  %arrayidx = getelementptr inbounds [16 x i16], ptr %preContext17, i64 0, i64 %idxprom
  store i16 0, ptr %arrayidx, align 2
  %rules18 = getelementptr inbounds %"class.icu_75::CollationRuleParser", ptr %this1, i32 0, i32 2
  %18 = load ptr, ptr %rules18, align 8
  %call19 = call noundef i32 @_ZNK6icu_7513UnicodeString6lengthEv(ptr noundef nonnull align 8 dereferenceable(64) %18)
  %ruleIndex20 = getelementptr inbounds %"class.icu_75::CollationRuleParser", ptr %this1, i32 0, i32 9
  %19 = load i32, ptr %ruleIndex20, align 8
  %sub21 = sub nsw i32 %call19, %19
  store i32 %sub21, ptr %length, align 4
  %20 = load i32, ptr %length, align 4
  %cmp22 = icmp sge i32 %20, 16
  br i1 %cmp22, label %if.then23, label %if.end33

if.then23:                                        ; preds = %invoke.cont
  store i32 15, ptr %length, align 4
  %rules24 = getelementptr inbounds %"class.icu_75::CollationRuleParser", ptr %this1, i32 0, i32 2
  %21 = load ptr, ptr %rules24, align 8
  %ruleIndex25 = getelementptr inbounds %"class.icu_75::CollationRuleParser", ptr %this1, i32 0, i32 9
  %22 = load i32, ptr %ruleIndex25, align 8
  %23 = load i32, ptr %length, align 4
  %add = add nsw i32 %22, %23
  %sub26 = sub nsw i32 %add, 1
  %call27 = call noundef zeroext i16 @_ZNK6icu_7513UnicodeString6charAtEi(ptr noundef nonnull align 8 dereferenceable(64) %21, i32 noundef %sub26)
  %conv28 = zext i16 %call27 to i32
  %and29 = and i32 %conv28, -1024
  %cmp30 = icmp eq i32 %and29, 55296
  br i1 %cmp30, label %if.then31, label %if.end32

if.then31:                                        ; preds = %if.then23
  %24 = load i32, ptr %length, align 4
  %dec = add nsw i32 %24, -1
  store i32 %dec, ptr %length, align 4
  br label %if.end32

lpad:                                             ; preds = %if.end11
  %25 = landingpad { ptr, i32 }
          cleanup
  %26 = extractvalue { ptr, i32 } %25, 0
  store ptr %26, ptr %exn.slot, align 8
  %27 = extractvalue { ptr, i32 } %25, 1
  store i32 %27, ptr %ehselector.slot, align 4
  call void @_ZN6icu_759Char16PtrD2Ev(ptr noundef nonnull align 8 dereferenceable(8) %agg.tmp) #8
  br label %eh.resume

if.end32:                                         ; preds = %if.then31, %if.then23
  br label %if.end33

if.end33:                                         ; preds = %if.end32, %invoke.cont
  %rules34 = getelementptr inbounds %"class.icu_75::CollationRuleParser", ptr %this1, i32 0, i32 2
  %28 = load ptr, ptr %rules34, align 8
  %ruleIndex35 = getelementptr inbounds %"class.icu_75::CollationRuleParser", ptr %this1, i32 0, i32 9
  %29 = load i32, ptr %ruleIndex35, align 8
  %30 = load i32, ptr %length, align 4
  %parseError37 = getelementptr inbounds %"class.icu_75::CollationRuleParser", ptr %this1, i32 0, i32 5
  %31 = load ptr, ptr %parseError37, align 8
  %postContext = getelementptr inbounds %struct.UParseError, ptr %31, i32 0, i32 3
  %arraydecay38 = getelementptr inbounds [16 x i16], ptr %postContext, i64 0, i64 0
  call void @_ZN6icu_759Char16PtrC2EPDs(ptr noundef nonnull align 8 dereferenceable(8) %agg.tmp36, ptr noundef %arraydecay38)
  invoke void @_ZNK6icu_7513UnicodeString7extractEiiNS_9Char16PtrEi(ptr noundef nonnull align 8 dereferenceable(64) %28, i32 noundef %29, i32 noundef %30, ptr noundef %agg.tmp36, i32 noundef 0)
          to label %invoke.cont40 unwind label %lpad39

invoke.cont40:                                    ; preds = %if.end33
  call void @_ZN6icu_759Char16PtrD2Ev(ptr noundef nonnull align 8 dereferenceable(8) %agg.tmp36) #8
  %parseError41 = getelementptr inbounds %"class.icu_75::CollationRuleParser", ptr %this1, i32 0, i32 5
  %32 = load ptr, ptr %parseError41, align 8
  %postContext42 = getelementptr inbounds %struct.UParseError, ptr %32, i32 0, i32 3
  %33 = load i32, ptr %length, align 4
  %idxprom43 = sext i32 %33 to i64
  %arrayidx44 = getelementptr inbounds [16 x i16], ptr %postContext42, i64 0, i64 %idxprom43
  store i16 0, ptr %arrayidx44, align 2
  br label %return

return:                                           ; preds = %invoke.cont40, %if.then
  ret void

lpad39:                                           ; preds = %if.end33
  %34 = landingpad { ptr, i32 }
          cleanup
  %35 = extractvalue { ptr, i32 } %34, 0
  store ptr %35, ptr %exn.slot, align 8
  %36 = extractvalue { ptr, i32 } %34, 1
  store i32 %36, ptr %ehselector.slot, align 4
  call void @_ZN6icu_759Char16PtrD2Ev(ptr noundef nonnull align 8 dereferenceable(8) %agg.tmp36) #8
  br label %eh.resume

eh.resume:                                        ; preds = %lpad39, %lpad
  %exn = load ptr, ptr %exn.slot, align 8
  %sel = load i32, ptr %ehselector.slot, align 4
  %lpad.val = insertvalue { ptr, i32 } poison, ptr %exn, 0
  %lpad.val45 = insertvalue { ptr, i32 } %lpad.val, i32 %sel, 1
  resume { ptr, i32 } %lpad.val45
}