; Function Attrs: mustprogress uwtable
define void @_ZN6icu_7519CollationRuleParser15setErrorContextEv(ptr nocapture noundef nonnull readonly align 8 dereferenceable(76) %this) local_unnamed_addr #1 align 2 personality ptr @__gxx_personality_v0 {
entry:
  %parseError = getelementptr inbounds i8, ptr %this, i64 40
  %0 = load ptr, ptr %parseError, align 8
  %cmp = icmp eq ptr %0, null
  br i1 %cmp, label %return, label %if.end

if.end:                                           ; preds = %entry
  %ruleIndex = getelementptr inbounds i8, ptr %this, i64 72
  %1 = load i32, ptr %ruleIndex, align 8
  %offset = getelementptr inbounds i8, ptr %0, i64 4
  store i32 %1, ptr %offset, align 4
  %2 = load ptr, ptr %parseError, align 8
  store i32 0, ptr %2, align 4
  %3 = load i32, ptr %ruleIndex, align 8
  %sub = add nsw i32 %3, -15
  %or.cond = icmp slt i32 %3, 16
  %rules14.phi.trans.insert = getelementptr inbounds i8, ptr %this, i64 16
  %.pre = load ptr, ptr %rules14.phi.trans.insert, align 8
  br i1 %or.cond, label %if.end11, label %land.lhs.true

land.lhs.true:                                    ; preds = %if.end
  %fUnion.i.i.i.i = getelementptr inbounds i8, ptr %.pre, i64 8
  %4 = load i16, ptr %fUnion.i.i.i.i, align 8
  %cmp.i.i.i.i = icmp slt i16 %4, 0
  %5 = ashr i16 %4, 5
  %shr.i.i.i.i = sext i16 %5 to i32
  %fLength.i.i.i = getelementptr inbounds i8, ptr %.pre, i64 12
  %6 = load i32, ptr %fLength.i.i.i, align 4
  %cond.i.i.i = select i1 %cmp.i.i.i.i, i32 %6, i32 %shr.i.i.i.i
  %cmp.i.i = icmp ugt i32 %cond.i.i.i, %sub
  br i1 %cmp.i.i, label %_ZNK6icu_7513UnicodeString6charAtEi.exit, label %if.end11

_ZNK6icu_7513UnicodeString6charAtEi.exit:         ; preds = %land.lhs.true
  %7 = and i16 %4, 2
  %tobool.not.i.i.i = icmp eq i16 %7, 0
  %fBuffer.i.i.i = getelementptr inbounds i8, ptr %.pre, i64 10
  %fArray.i.i.i = getelementptr inbounds i8, ptr %.pre, i64 24
  %8 = load ptr, ptr %fArray.i.i.i, align 8
  %cond.i2.i.i = select i1 %tobool.not.i.i.i, ptr %8, ptr %fBuffer.i.i.i
  %idxprom.i.i = zext nneg i32 %sub to i64
  %arrayidx.i.i = getelementptr inbounds i16, ptr %cond.i2.i.i, i64 %idxprom.i.i
  %9 = load i16, ptr %arrayidx.i.i, align 2
  %.fr38 = freeze i16 %9
  %10 = and i16 %.fr38, -1024
  %11 = icmp eq i16 %10, -9216
  %inc = add nsw i32 %3, -14
  %spec.select = select i1 %11, i32 %inc, i32 %sub
  br label %if.end11

if.end11:                                         ; preds = %_ZNK6icu_7513UnicodeString6charAtEi.exit, %if.end, %land.lhs.true
  %start.0 = phi i32 [ %sub, %land.lhs.true ], [ 0, %if.end ], [ %spec.select, %_ZNK6icu_7513UnicodeString6charAtEi.exit ]
  %sub13 = sub nsw i32 %3, %start.0
  %12 = load ptr, ptr %parseError, align 8
  %preContext = getelementptr inbounds i8, ptr %12, i64 8
  invoke void @_ZNK6icu_7513UnicodeString9doExtractEiiPDsi(ptr noundef nonnull align 8 dereferenceable(64) %.pre, i32 noundef %start.0, i32 noundef %sub13, ptr noundef nonnull %preContext, i32 noundef 0)
          to label %invoke.cont unwind label %lpad

invoke.cont:                                      ; preds = %if.end11
  %rules14 = getelementptr inbounds i8, ptr %this, i64 16
  tail call void asm sideeffect "", "rm,~{memory},~{dirflag},~{fpsr},~{flags}"(ptr nonnull %preContext) #14, !srcloc !14
  %13 = load ptr, ptr %parseError, align 8
  %preContext17 = getelementptr inbounds i8, ptr %13, i64 8
  %idxprom = sext i32 %sub13 to i64
  %arrayidx = getelementptr inbounds [16 x i16], ptr %preContext17, i64 0, i64 %idxprom
  store i16 0, ptr %arrayidx, align 2
  %14 = load ptr, ptr %rules14, align 8
  %fUnion.i.i = getelementptr inbounds i8, ptr %14, i64 8
  %15 = load i16, ptr %fUnion.i.i, align 8
  %cmp.i.i14 = icmp slt i16 %15, 0
  %16 = ashr i16 %15, 5
  %shr.i.i = sext i16 %16 to i32
  %fLength.i = getelementptr inbounds i8, ptr %14, i64 12
  %17 = load i32, ptr %fLength.i, align 4
  %cond.i = select i1 %cmp.i.i14, i32 %17, i32 %shr.i.i
  %18 = load i32, ptr %ruleIndex, align 8
  %sub21 = sub nsw i32 %cond.i, %18
  %cmp22 = icmp sgt i32 %sub21, 15
  br i1 %cmp22, label %if.then23, label %if.end33

if.then23:                                        ; preds = %invoke.cont
  %sub26 = add nsw i32 %18, 14
  %cmp.i.i20 = icmp ugt i32 %cond.i, %sub26
  br i1 %cmp.i.i20, label %if.then.i.i22, label %if.end33

if.then.i.i22:                                    ; preds = %if.then23
  %19 = and i16 %15, 2
  %tobool.not.i.i.i23 = icmp eq i16 %19, 0
  %fBuffer.i.i.i24 = getelementptr inbounds i8, ptr %14, i64 10
  %fArray.i.i.i25 = getelementptr inbounds i8, ptr %14, i64 24
  %20 = load ptr, ptr %fArray.i.i.i25, align 8
  %cond.i2.i.i26 = select i1 %tobool.not.i.i.i23, ptr %20, ptr %fBuffer.i.i.i24
  %idxprom.i.i27 = sext i32 %sub26 to i64
  %arrayidx.i.i28 = getelementptr inbounds i16, ptr %cond.i2.i.i26, i64 %idxprom.i.i27
  %21 = load i16, ptr %arrayidx.i.i28, align 2
  %22 = and i16 %21, -1024
  %23 = icmp eq i16 %22, -10240
  %24 = select i1 %23, i32 14, i32 15
  br label %if.end33

lpad:                                             ; preds = %if.end11
  %25 = landingpad { ptr, i32 }
          cleanup
  tail call void asm sideeffect "", "rm,~{memory},~{dirflag},~{fpsr},~{flags}"(ptr nonnull %preContext) #14, !srcloc !14
  br label %eh.resume

if.end33:                                         ; preds = %if.then.i.i22, %if.then23, %invoke.cont
  %length.0 = phi i32 [ %sub21, %invoke.cont ], [ %24, %if.then.i.i22 ], [ 15, %if.then23 ]
  %26 = load ptr, ptr %parseError, align 8
  %postContext = getelementptr inbounds i8, ptr %26, i64 40
  invoke void @_ZNK6icu_7513UnicodeString9doExtractEiiPDsi(ptr noundef nonnull align 8 dereferenceable(64) %14, i32 noundef %18, i32 noundef %length.0, ptr noundef nonnull %postContext, i32 noundef 0)
          to label %invoke.cont40 unwind label %lpad39

invoke.cont40:                                    ; preds = %if.end33
  tail call void asm sideeffect "", "rm,~{memory},~{dirflag},~{fpsr},~{flags}"(ptr nonnull %postContext) #14, !srcloc !14
  %27 = load ptr, ptr %parseError, align 8
  %postContext42 = getelementptr inbounds i8, ptr %27, i64 40
  %idxprom43 = sext i32 %length.0 to i64
  %arrayidx44 = getelementptr inbounds [16 x i16], ptr %postContext42, i64 0, i64 %idxprom43
  store i16 0, ptr %arrayidx44, align 2
  br label %return

return:                                           ; preds = %entry, %invoke.cont40
  ret void

lpad39:                                           ; preds = %if.end33
  %28 = landingpad { ptr, i32 }
          cleanup
  tail call void asm sideeffect "", "rm,~{memory},~{dirflag},~{fpsr},~{flags}"(ptr nonnull %postContext) #14, !srcloc !14
  br label %eh.resume

eh.resume:                                        ; preds = %lpad39, %lpad
  %.pn = phi { ptr, i32 } [ %28, %lpad39 ], [ %25, %lpad ]
  resume { ptr, i32 } %.pn
}